target datalayout = "e-m:e-p270:32:32-p271:32:32-p272:64:64-i64:64-i128:128-f80:128-n8:16:32:64-S128"
target triple = "x86_64-pc-linux-gnu"

%struct.WebPDecBuffer = type { i32, i32, i32, i32, %union.anon, [4 x i32], ptr }
%union.anon = type { %struct.WebPYUVABuffer }
%struct.WebPYUVABuffer = type { ptr, ptr, ptr, ptr, i32, i32, i32, i32, i64, i64, i64, i64 }

; Function Attrs: nounwind uwtable
define hidden i32 @WebPWriteYUV(ptr noundef %0, ptr noundef %1) #0 {
  %3 = alloca i32, align 4
  %4 = alloca ptr, align 8
  %5 = alloca ptr, align 8
  %6 = alloca i32, align 4
  %7 = alloca i32, align 4
  %8 = alloca ptr, align 8
  %9 = alloca ptr, align 8
  %10 = alloca ptr, align 8
  %11 = alloca ptr, align 8
  %12 = alloca ptr, align 8
  %13 = alloca i32, align 4
  %14 = alloca i32, align 4
  %15 = alloca i32, align 4
  %16 = alloca i32, align 4
  %17 = alloca i32, align 4
  %18 = alloca i32, align 4
  store ptr %0, ptr %4, align 8, !tbaa !4
  store ptr %1, ptr %5, align 8, !tbaa !9
  %19 = load ptr, ptr %4, align 8, !tbaa !4
  %20 = icmp eq ptr %19, null
  br i1 %20, label %24, label %21

21:                                               ; preds = %2
  %22 = load ptr, ptr %5, align 8, !tbaa !9
  %23 = icmp eq ptr %22, null
  br i1 %23, label %24, label %25

24:                                               ; preds = %21, %2
  store i32 0, ptr %3, align 4
  br label %187

25:                                               ; preds = %21
  call void @llvm.lifetime.start.p0(i64 4, ptr %6) #9
  %26 = load ptr, ptr %5, align 8, !tbaa !9
  %27 = getelementptr inbounds nuw %struct.WebPDecBuffer, ptr %26, i32 0, i32 1
  %28 = load i32, ptr %27, align 4, !tbaa !15
  store i32 %28, ptr %6, align 4, !tbaa !19
  call void @llvm.lifetime.start.p0(i64 4, ptr %7) #9
  %29 = load ptr, ptr %5, align 8, !tbaa !9
  %30 = getelementptr inbounds nuw %struct.WebPDecBuffer, ptr %29, i32 0, i32 2
  %31 = load i32, ptr %30, align 8, !tbaa !20
  store i32 %31, ptr %7, align 4, !tbaa !19
  call void @llvm.lifetime.start.p0(i64 8, ptr %8) #9
  %32 = load ptr, ptr %5, align 8, !tbaa !9
  %33 = getelementptr inbounds nuw %struct.WebPDecBuffer, ptr %32, i32 0, i32 4
  store ptr %33, ptr %8, align 8, !tbaa !33
  call void @llvm.lifetime.start.p0(i64 8, ptr %9) #9
  %34 = load ptr, ptr %8, align 8, !tbaa !33
  %35 = getelementptr inbounds nuw %struct.WebPYUVABuffer, ptr %34, i32 0, i32 0
  %36 = load ptr, ptr %35, align 8, !tbaa !35
  store ptr %36, ptr %9, align 8, !tbaa !22
  call void @llvm.lifetime.start.p0(i64 8, ptr %10) #9
  %37 = load ptr, ptr %8, align 8, !tbaa !33
  %38 = getelementptr inbounds nuw %struct.WebPYUVABuffer, ptr %37, i32 0, i32 1
  %39 = load ptr, ptr %38, align 8, !tbaa !37
  store ptr %39, ptr %10, align 8, !tbaa !22
  call void @llvm.lifetime.start.p0(i64 8, ptr %11) #9
  %40 = load ptr, ptr %8, align 8, !tbaa !33
  %41 = getelementptr inbounds nuw %struct.WebPYUVABuffer, ptr %40, i32 0, i32 2
  %42 = load ptr, ptr %41, align 8, !tbaa !38
  store ptr %42, ptr %11, align 8, !tbaa !22
  call void @llvm.lifetime.start.p0(i64 8, ptr %12) #9
  %43 = load ptr, ptr %8, align 8, !tbaa !33
  %44 = getelementptr inbounds nuw %struct.WebPYUVABuffer, ptr %43, i32 0, i32 3
  %45 = load ptr, ptr %44, align 8, !tbaa !39
  store ptr %45, ptr %12, align 8, !tbaa !22
  call void @llvm.lifetime.start.p0(i64 4, ptr %13) #9
  %46 = load i32, ptr %6, align 4, !tbaa !19
  %47 = add nsw i32 %46, 1
  %48 = sdiv i32 %47, 2
  store i32 %48, ptr %13, align 4, !tbaa !19
  call void @llvm.lifetime.start.p0(i64 4, ptr %14) #9
  %49 = load i32, ptr %7, align 4, !tbaa !19
  %50 = add nsw i32 %49, 1
  %51 = sdiv i32 %50, 2
  store i32 %51, ptr %14, align 4, !tbaa !19
  call void @llvm.lifetime.start.p0(i64 4, ptr %15) #9
  %52 = load ptr, ptr %12, align 8, !tbaa !22
  %53 = icmp ne ptr %52, null
  br i1 %53, label %54, label %56

54:                                               ; preds = %25
  %55 = load i32, ptr %7, align 4, !tbaa !19
  br label %57

56:                                               ; preds = %25
  br label %57

57:                                               ; preds = %56, %54
  %58 = phi i32 [ %55, %54 ], [ 0, %56 ]
  store i32 %58, ptr %15, align 4, !tbaa !19
  call void @llvm.lifetime.start.p0(i64 4, ptr %16) #9
  store i32 1, ptr %16, align 4, !tbaa !19
  call void @llvm.lifetime.start.p0(i64 4, ptr %17) #9
  %59 = load ptr, ptr %9, align 8, !tbaa !22
  %60 = icmp eq ptr %59, null
  br i1 %60, label %67, label %61

61:                                               ; preds = %57
  %62 = load ptr, ptr %10, align 8, !tbaa !22
  %63 = icmp eq ptr %62, null
  br i1 %63, label %67, label %64

64:                                               ; preds = %61
  %65 = load ptr, ptr %11, align 8, !tbaa !22
  %66 = icmp eq ptr %65, null
  br i1 %66, label %67, label %68

67:                                               ; preds = %64, %61, %57
  store i32 0, ptr %3, align 4
  store i32 1, ptr %18, align 4
  br label %186

68:                                               ; preds = %64
  store i32 0, ptr %17, align 4, !tbaa !19
  br label %69

69:                                               ; preds = %94, %68
  %70 = load i32, ptr %16, align 4, !tbaa !19
  %71 = icmp ne i32 %70, 0
  br i1 %71, label %72, label %76

72:                                               ; preds = %69
  %73 = load i32, ptr %17, align 4, !tbaa !19
  %74 = load i32, ptr %7, align 4, !tbaa !19
  %75 = icmp slt i32 %73, %74
  br label %76

76:                                               ; preds = %72, %69
  %77 = phi i1 [ false, %69 ], [ %75, %72 ]
  br i1 %77, label %78, label %97

78:                                               ; preds = %76
  %79 = load ptr, ptr %9, align 8, !tbaa !22
  %80 = load i32, ptr %6, align 4, !tbaa !19
  %81 = sext i32 %80 to i64
  %82 = load ptr, ptr %4, align 8, !tbaa !4
  %83 = call i64 @fwrite(ptr noundef %79, i64 noundef %81, i64 noundef 1, ptr noundef %82)
  %84 = icmp eq i64 %83, 1
  %85 = zext i1 %84 to i32
  %86 = load i32, ptr %16, align 4, !tbaa !19
  %87 = and i32 %86, %85
  store i32 %87, ptr %16, align 4, !tbaa !19
  %88 = load ptr, ptr %8, align 8, !tbaa !33
  %89 = getelementptr inbounds nuw %struct.WebPYUVABuffer, ptr %88, i32 0, i32 4
  %90 = load i32, ptr %89, align 8, !tbaa !40
  %91 = load ptr, ptr %9, align 8, !tbaa !22
  %92 = sext i32 %90 to i64
  %93 = getelementptr inbounds i8, ptr %91, i64 %92
  store ptr %93, ptr %9, align 8, !tbaa !22
  br label %94

94:                                               ; preds = %78
  %95 = load i32, ptr %17, align 4, !tbaa !19
  %96 = add nsw i32 %95, 1
  store i32 %96, ptr %17, align 4, !tbaa !19
  br label %69, !llvm.loop !47

97:                                               ; preds = %76
  store i32 0, ptr %17, align 4, !tbaa !19
  br label %98

98:                                               ; preds = %123, %97
  %99 = load i32, ptr %16, align 4, !tbaa !19
  %100 = icmp ne i32 %99, 0
  br i1 %100, label %101, label %105

101:                                              ; preds = %98
  %102 = load i32, ptr %17, align 4, !tbaa !19
  %103 = load i32, ptr %14, align 4, !tbaa !19
  %104 = icmp slt i32 %102, %103
  br label %105

105:                                              ; preds = %101, %98
  %106 = phi i1 [ false, %98 ], [ %104, %101 ]
  br i1 %106, label %107, label %126

107:                                              ; preds = %105
  %108 = load ptr, ptr %10, align 8, !tbaa !22
  %109 = load i32, ptr %13, align 4, !tbaa !19
  %110 = sext i32 %109 to i64
  %111 = load ptr, ptr %4, align 8, !tbaa !4
  %112 = call i64 @fwrite(ptr noundef %108, i64 noundef %110, i64 noundef 1, ptr noundef %111)
  %113 = icmp eq i64 %112, 1
  %114 = zext i1 %113 to i32
  %115 = load i32, ptr %16, align 4, !tbaa !19
  %116 = and i32 %115, %114
  store i32 %116, ptr %16, align 4, !tbaa !19
  %117 = load ptr, ptr %8, align 8, !tbaa !33
  %118 = getelementptr inbounds nuw %struct.WebPYUVABuffer, ptr %117, i32 0, i32 5
  %119 = load i32, ptr %118, align 4, !tbaa !42
  %120 = load ptr, ptr %10, align 8, !tbaa !22
  %121 = sext i32 %119 to i64
  %122 = getelementptr inbounds i8, ptr %120, i64 %121
  store ptr %122, ptr %10, align 8, !tbaa !22
  br label %123

123:                                              ; preds = %107
  %124 = load i32, ptr %17, align 4, !tbaa !19
  %125 = add nsw i32 %124, 1
  store i32 %125, ptr %17, align 4, !tbaa !19
  br label %98, !llvm.loop !48

126:                                              ; preds = %105
  store i32 0, ptr %17, align 4, !tbaa !19
  br label %127

127:                                              ; preds = %152, %126
  %128 = load i32, ptr %16, align 4, !tbaa !19
  %129 = icmp ne i32 %128, 0
  br i1 %129, label %130, label %134

130:                                              ; preds = %127
  %131 = load i32, ptr %17, align 4, !tbaa !19
  %132 = load i32, ptr %14, align 4, !tbaa !19
  %133 = icmp slt i32 %131, %132
  br label %134

134:                                              ; preds = %130, %127
  %135 = phi i1 [ false, %127 ], [ %133, %130 ]
  br i1 %135, label %136, label %155

136:                                              ; preds = %134
  %137 = load ptr, ptr %11, align 8, !tbaa !22
  %138 = load i32, ptr %13, align 4, !tbaa !19
  %139 = sext i32 %138 to i64
  %140 = load ptr, ptr %4, align 8, !tbaa !4
  %141 = call i64 @fwrite(ptr noundef %137, i64 noundef %139, i64 noundef 1, ptr noundef %140)
  %142 = icmp eq i64 %141, 1
  %143 = zext i1 %142 to i32
  %144 = load i32, ptr %16, align 4, !tbaa !19
  %145 = and i32 %144, %143
  store i32 %145, ptr %16, align 4, !tbaa !19
  %146 = load ptr, ptr %8, align 8, !tbaa !33
  %147 = getelementptr inbounds nuw %struct.WebPYUVABuffer, ptr %146, i32 0, i32 6
  %148 = load i32, ptr %147, align 8, !tbaa !43
  %149 = load ptr, ptr %11, align 8, !tbaa !22
  %150 = sext i32 %148 to i64
  %151 = getelementptr inbounds i8, ptr %149, i64 %150
  store ptr %151, ptr %11, align 8, !tbaa !22
  br label %152

152:                                              ; preds = %136
  %153 = load i32, ptr %17, align 4, !tbaa !19
  %154 = add nsw i32 %153, 1
  store i32 %154, ptr %17, align 4, !tbaa !19
  br label %127, !llvm.loop !49

155:                                              ; preds = %134
  store i32 0, ptr %17, align 4, !tbaa !19
  br label %156

156:                                              ; preds = %181, %155
  %157 = load i32, ptr %16, align 4, !tbaa !19
  %158 = icmp ne i32 %157, 0
  br i1 %158, label %159, label %163

159:                                              ; preds = %156
  %160 = load i32, ptr %17, align 4, !tbaa !19
  %161 = load i32, ptr %15, align 4, !tbaa !19
  %162 = icmp slt i32 %160, %161
  br label %163

163:                                              ; preds = %159, %156
  %164 = phi i1 [ false, %156 ], [ %162, %159 ]
  br i1 %164, label %165, label %184

165:                                              ; preds = %163
  %166 = load ptr, ptr %12, align 8, !tbaa !22
  %167 = load i32, ptr %6, align 4, !tbaa !19
  %168 = sext i32 %167 to i64
  %169 = load ptr, ptr %4, align 8, !tbaa !4
  %170 = call i64 @fwrite(ptr noundef %166, i64 noundef %168, i64 noundef 1, ptr noundef %169)
  %171 = icmp eq i64 %170, 1
  %172 = zext i1 %171 to i32
  %173 = load i32, ptr %16, align 4, !tbaa !19
  %174 = and i32 %173, %172
  store i32 %174, ptr %16, align 4, !tbaa !19
  %175 = load ptr, ptr %8, align 8, !tbaa !33
  %176 = getelementptr inbounds nuw %struct.WebPYUVABuffer, ptr %175, i32 0, i32 7
  %177 = load i32, ptr %176, align 4, !tbaa !45
  %178 = load ptr, ptr %12, align 8, !tbaa !22
  %179 = sext i32 %177 to i64
  %180 = getelementptr inbounds i8, ptr %178, i64 %179
  store ptr %180, ptr %12, align 8, !tbaa !22
  br label %181

181:                                              ; preds = %165
  %182 = load i32, ptr %17, align 4, !tbaa !19
  %183 = add nsw i32 %182, 1
  store i32 %183, ptr %17, align 4, !tbaa !19
  br label %156, !llvm.loop !50

184:                                              ; preds = %163
  %185 = load i32, ptr %16, align 4, !tbaa !19
  store i32 %185, ptr %3, align 4
  store i32 1, ptr %18, align 4
  br label %186

186:                                              ; preds = %184, %67
  call void @llvm.lifetime.end.p0(i64 4, ptr %17) #9
  call void @llvm.lifetime.end.p0(i64 4, ptr %16) #9
  call void @llvm.lifetime.end.p0(i64 4, ptr %15) #9
  call void @llvm.lifetime.end.p0(i64 4, ptr %14) #9
  call void @llvm.lifetime.end.p0(i64 4, ptr %13) #9
  call void @llvm.lifetime.end.p0(i64 8, ptr %12) #9
  call void @llvm.lifetime.end.p0(i64 8, ptr %11) #9
  call void @llvm.lifetime.end.p0(i64 8, ptr %10) #9
  call void @llvm.lifetime.end.p0(i64 8, ptr %9) #9
  call void @llvm.lifetime.end.p0(i64 8, ptr %8) #9
  call void @llvm.lifetime.end.p0(i64 4, ptr %7) #9
  call void @llvm.lifetime.end.p0(i64 4, ptr %6) #9
  br label %187

187:                                              ; preds = %186, %24
  %188 = load i32, ptr %3, align 4
  ret i32 %188
}