; Function Attrs: nofree nounwind uwtable
define hidden range(i32 0, 2) i32 @WebPWriteYUV(ptr noundef captures(address_is_null) %0, ptr noundef readonly captures(address_is_null) %1) local_unnamed_addr #6 {
  %3 = icmp eq ptr %0, null
  %4 = icmp eq ptr %1, null
  %or.cond = or i1 %3, %4
  br i1 %or.cond, label %.loopexit, label %5

5:                                                ; preds = %2
  %6 = getelementptr inbounds nuw i8, ptr %1, i64 4
  %7 = load i32, ptr %6, align 4, !tbaa !11
  %8 = getelementptr inbounds nuw i8, ptr %1, i64 8
  %9 = load i32, ptr %8, align 8, !tbaa !15
  %10 = getelementptr inbounds nuw i8, ptr %1, i64 16
  %11 = load ptr, ptr %10, align 8, !tbaa !26
  %12 = getelementptr inbounds nuw i8, ptr %1, i64 24
  %13 = load ptr, ptr %12, align 8, !tbaa !29
  %14 = getelementptr inbounds nuw i8, ptr %1, i64 32
  %15 = load ptr, ptr %14, align 8, !tbaa !30
  %16 = getelementptr inbounds nuw i8, ptr %1, i64 40
  %17 = load ptr, ptr %16, align 8, !tbaa !31
  %.fr = freeze ptr %17
  %18 = add nsw i32 %7, 1
  %19 = sdiv i32 %18, 2
  %20 = add nsw i32 %9, 1
  %21 = sdiv i32 %20, 2
  %.not = icmp ne ptr %.fr, null
  %22 = icmp eq ptr %11, null
  %23 = icmp eq ptr %13, null
  %or.cond3 = select i1 %22, i1 true, i1 %23
  %24 = icmp eq ptr %15, null
  %or.cond5 = select i1 %or.cond3, i1 true, i1 %24
  br i1 %or.cond5, label %.loopexit, label %.preheader79

.preheader79:                                     ; preds = %5
  %25 = icmp sgt i32 %9, 0
  br i1 %25, label %.lr.ph, label %.loopexit

.lr.ph:                                           ; preds = %.preheader79
  %26 = sext i32 %7 to i64
  %27 = getelementptr inbounds nuw i8, ptr %1, i64 48
  br label %30

.preheader78:                                     ; preds = %30
  br i1 %32, label %.lr.ph84, label %.preheader

.lr.ph84:                                         ; preds = %.preheader78
  %28 = sext i32 %19 to i64
  %29 = getelementptr inbounds nuw i8, ptr %1, i64 52
  br label %41

30:                                               ; preds = %.lr.ph, %30
  %.081 = phi i32 [ 0, %.lr.ph ], [ %36, %30 ]
  %.06880 = phi ptr [ %11, %.lr.ph ], [ %35, %30 ]
  %31 = tail call i64 @fwrite(ptr noundef %.06880, i64 noundef %26, i64 noundef 1, ptr noundef %0)
  %32 = icmp eq i64 %31, 1
  %33 = load i32, ptr %27, align 8, !tbaa !32
  %34 = sext i32 %33 to i64
  %35 = getelementptr inbounds i8, ptr %.06880, i64 %34
  %36 = add nuw nsw i32 %.081, 1
  %37 = icmp slt i32 %36, %9
  %38 = select i1 %32, i1 %37, i1 false
  br i1 %38, label %30, label %.preheader78, !llvm.loop !39

.preheader77:                                     ; preds = %41
  br i1 %43, label %.lr.ph88, label %.preheader

.lr.ph88:                                         ; preds = %.preheader77
  %39 = sext i32 %19 to i64
  %40 = getelementptr inbounds nuw i8, ptr %1, i64 56
  br label %53

41:                                               ; preds = %.lr.ph84, %41
  %.183 = phi i32 [ 0, %.lr.ph84 ], [ %47, %41 ]
  %.06982 = phi ptr [ %13, %.lr.ph84 ], [ %46, %41 ]
  %42 = tail call i64 @fwrite(ptr noundef %.06982, i64 noundef %28, i64 noundef 1, ptr noundef %0)
  %43 = icmp eq i64 %42, 1
  %44 = load i32, ptr %29, align 4, !tbaa !36
  %45 = sext i32 %44 to i64
  %46 = getelementptr inbounds i8, ptr %.06982, i64 %45
  %47 = add nuw nsw i32 %.183, 1
  %48 = icmp slt i32 %47, %21
  %49 = select i1 %43, i1 %48, i1 false
  br i1 %49, label %41, label %.preheader77, !llvm.loop !40

.preheader:                                       ; preds = %53, %.preheader78, %.preheader77
  %.264.lcssa.in = phi i1 [ false, %.preheader77 ], [ false, %.preheader78 ], [ %55, %53 ]
  %50 = and i1 %.264.lcssa.in, %.not
  br i1 %50, label %.lr.ph92.split.preheader, label %.loopexit

.lr.ph92.split.preheader:                         ; preds = %.preheader
  %51 = sext i32 %7 to i64
  %52 = getelementptr inbounds nuw i8, ptr %1, i64 60
  br label %.lr.ph92.split

53:                                               ; preds = %.lr.ph88, %53
  %.287 = phi i32 [ 0, %.lr.ph88 ], [ %59, %53 ]
  %.07186 = phi ptr [ %15, %.lr.ph88 ], [ %58, %53 ]
  %54 = tail call i64 @fwrite(ptr noundef %.07186, i64 noundef %39, i64 noundef 1, ptr noundef %0)
  %55 = icmp eq i64 %54, 1
  %56 = load i32, ptr %40, align 8, !tbaa !37
  %57 = sext i32 %56 to i64
  %58 = getelementptr inbounds i8, ptr %.07186, i64 %57
  %59 = add nuw nsw i32 %.287, 1
  %60 = icmp slt i32 %59, %21
  %61 = select i1 %55, i1 %60, i1 false
  br i1 %61, label %53, label %.preheader, !llvm.loop !41

.lr.ph92.split:                                   ; preds = %.lr.ph92.split.preheader, %.lr.ph92.split
  %.391 = phi i32 [ %67, %.lr.ph92.split ], [ 0, %.lr.ph92.split.preheader ]
  %.07090 = phi ptr [ %66, %.lr.ph92.split ], [ %.fr, %.lr.ph92.split.preheader ]
  %62 = tail call i64 @fwrite(ptr noundef %.07090, i64 noundef %51, i64 noundef 1, ptr noundef %0)
  %63 = icmp eq i64 %62, 1
  %64 = load i32, ptr %52, align 4, !tbaa !34
  %65 = sext i32 %64 to i64
  %66 = getelementptr inbounds i8, ptr %.07090, i64 %65
  %67 = add nuw nsw i32 %.391, 1
  %68 = icmp sgt i32 %9, %67
  %69 = select i1 %63, i1 %68, i1 false
  br i1 %69, label %.lr.ph92.split, label %.loopexit, !llvm.loop !42

.loopexit:                                        ; preds = %.lr.ph92.split, %.preheader79, %.preheader, %5, %2
  %.066.shrunk = phi i1 [ false, %2 ], [ false, %5 ], [ %.264.lcssa.in, %.preheader ], [ true, %.preheader79 ], [ %63, %.lr.ph92.split ]
  %.066 = zext i1 %.066.shrunk to i32
  ret i32 %.066
}